target datalayout = "e-m:e-p270:32:32-p271:32:32-p272:64:64-i64:64-i128:128-f80:128-n8:16:32:64-S128"
target triple = "x86_64-pc-linux-gnu"

%struct.client = type { i64, i64, ptr, i8, i8, i8, i8, i32, ptr, ptr, ptr, ptr, ptr, i64, i64, i32, ptr, i32, i32, ptr, i64, ptr, ptr, ptr, ptr, ptr, i32, i32, i64, ptr, i64, ptr, i64, i64, i64, i32, ptr, i64, i64, i32, i32, i32, i32, i64, i64, ptr, i64, i64, i64, i64, i64, i64, i64, i64, [41 x i8], i32, ptr, i32, i32, i64, %struct.multiState, %struct.blockingState, i64, ptr, ptr, ptr, ptr, ptr, ptr, ptr, ptr, ptr, ptr, ptr, ptr, ptr, ptr, i64, ptr, i64, i32, ptr, ptr, ptr, i64, %struct.listNode, i64, i64, i32, i64, ptr }
%struct.multiState = type { ptr, i32, i32, i32, i64, i32 }
%struct.blockingState = type { i32, i64, i32, ptr, i32, i32, i64, ptr, ptr, i64 }
%struct.listNode = type { ptr, ptr, ptr }
%struct.redisObject = type { i32, i32, ptr }
%struct.sdshdr8 = type { i8, i8, i8, [0 x i8] }
%struct.sdshdr16 = type <{ i16, i16, i8, [0 x i8] }>
%struct.sdshdr32 = type <{ i32, i32, i8, [0 x i8] }>
%struct.sdshdr64 = type <{ i64, i64, i8, [0 x i8] }>
%struct.getKeysResult = type { i32, i32, [6 x %struct.keyReference], ptr }
%struct.keyReference = type { i32, i32 }
%struct.redisCommand = type { ptr, ptr, ptr, ptr, i32, ptr, ptr, i32, ptr, i32, ptr, i32, ptr, i32, i64, i64, ptr, i32, ptr, i32, ptr, ptr, i64, i64, i64, i64, i32, ptr, ptr, %struct.keySpec, ptr, ptr, ptr }
%struct.keySpec = type { ptr, i64, i32, %union.anon, i32, %union.anon.2 }
%union.anon = type { %struct.anon.1 }
%struct.anon.1 = type { ptr, i32 }
%union.anon.2 = type { %struct.anon.3 }
%struct.anon.3 = type { i32, i32, i32 }

@TrackingTable = dso_local global ptr null, align 8
@TrackingTableTotalItems = dso_local global i64 0, align 8
@.str.2 = private unnamed_addr constant [11 x i8] c"tracking.c\00", align 1
@.str.7 = private unnamed_addr constant [14 x i8] c"inserted == 1\00", align 1

; Function Attrs: inlinehint nounwind uwtable
define internal i64 @sdslen(ptr noundef %0) #5 {
  %2 = alloca i64, align 8
  %3 = alloca ptr, align 8
  %4 = alloca i8, align 1
  %5 = alloca i32, align 4
  store ptr %0, ptr %3, align 8, !tbaa !71
  call void @llvm.lifetime.start.p0(i64 1, ptr %4) #10
  %6 = load ptr, ptr %3, align 8, !tbaa !71
  %7 = getelementptr inbounds i8, ptr %6, i64 -1
  %8 = load i8, ptr %7, align 1, !tbaa !75
  store i8 %8, ptr %4, align 1, !tbaa !75
  %9 = load i8, ptr %4, align 1, !tbaa !75
  %10 = zext i8 %9 to i32
  %11 = and i32 %10, 7
  switch i32 %11, label %40 [
    i32 0, label %12
    i32 1, label %17
    i32 2, label %23
    i32 3, label %29
    i32 4, label %35
  ]

12:                                               ; preds = %1
  %13 = load i8, ptr %4, align 1, !tbaa !75
  %14 = zext i8 %13 to i32
  %15 = ashr i32 %14, 3
  %16 = sext i32 %15 to i64
  store i64 %16, ptr %2, align 8
  store i32 1, ptr %5, align 4
  br label %41

17:                                               ; preds = %1
  %18 = load ptr, ptr %3, align 8, !tbaa !71
  %19 = getelementptr inbounds i8, ptr %18, i64 -3
  %20 = getelementptr inbounds nuw %struct.sdshdr8, ptr %19, i32 0, i32 0
  %21 = load i8, ptr %20, align 1, !tbaa !75
  %22 = zext i8 %21 to i64
  store i64 %22, ptr %2, align 8
  store i32 1, ptr %5, align 4
  br label %41

23:                                               ; preds = %1
  %24 = load ptr, ptr %3, align 8, !tbaa !71
  %25 = getelementptr inbounds i8, ptr %24, i64 -5
  %26 = getelementptr inbounds nuw %struct.sdshdr16, ptr %25, i32 0, i32 0
  %27 = load i16, ptr %26, align 1, !tbaa !76
  %28 = zext i16 %27 to i64
  store i64 %28, ptr %2, align 8
  store i32 1, ptr %5, align 4
  br label %41

29:                                               ; preds = %1
  %30 = load ptr, ptr %3, align 8, !tbaa !71
  %31 = getelementptr inbounds i8, ptr %30, i64 -9
  %32 = getelementptr inbounds nuw %struct.sdshdr32, ptr %31, i32 0, i32 0
  %33 = load i32, ptr %32, align 1, !tbaa !37
  %34 = zext i32 %33 to i64
  store i64 %34, ptr %2, align 8
  store i32 1, ptr %5, align 4
  br label %41

35:                                               ; preds = %1
  %36 = load ptr, ptr %3, align 8, !tbaa !71
  %37 = getelementptr inbounds i8, ptr %36, i64 -17
  %38 = getelementptr inbounds nuw %struct.sdshdr64, ptr %37, i32 0, i32 0
  %39 = load i64, ptr %38, align 1, !tbaa !67
  store i64 %39, ptr %2, align 8
  store i32 1, ptr %5, align 4
  br label %41

40:                                               ; preds = %1
  store i64 0, ptr %2, align 8
  store i32 1, ptr %5, align 4
  br label %41

41:                                               ; preds = %40, %35, %29, %23, %17, %12
  call void @llvm.lifetime.end.p0(i64 1, ptr %4) #10
  %42 = load i64, ptr %2, align 8
  ret i64 %42
}

; Function Attrs: nounwind uwtable
define dso_local void @trackingRememberKeys(ptr noundef %0, ptr noundef %1) #0 {
  %3 = alloca ptr, align 8
  %4 = alloca ptr, align 8
  %5 = alloca i64, align 8
  %6 = alloca i64, align 8
  %7 = alloca i64, align 8
  %8 = alloca i32, align 4
  %9 = alloca %struct.getKeysResult, align 8
  %10 = alloca i32, align 4
  %11 = alloca ptr, align 8
  %12 = alloca i32, align 4
  %13 = alloca i32, align 4
  %14 = alloca ptr, align 8
  %15 = alloca ptr, align 8
  %16 = alloca ptr, align 8
  %17 = alloca i32, align 4
  store ptr %0, ptr %3, align 8, !tbaa !5
  store ptr %1, ptr %4, align 8, !tbaa !5
  call void @llvm.lifetime.start.p0(i64 8, ptr %5) #10
  %18 = load ptr, ptr %3, align 8, !tbaa !5
  %19 = getelementptr inbounds nuw %struct.client, ptr %18, i32 0, i32 1
  %20 = load i64, ptr %19, align 8, !tbaa !10
  %21 = and i64 %20, 17179869184
  store i64 %21, ptr %5, align 8, !tbaa !67
  call void @llvm.lifetime.start.p0(i64 8, ptr %6) #10
  %22 = load ptr, ptr %3, align 8, !tbaa !5
  %23 = getelementptr inbounds nuw %struct.client, ptr %22, i32 0, i32 1
  %24 = load i64, ptr %23, align 8, !tbaa !10
  %25 = and i64 %24, 34359738368
  store i64 %25, ptr %6, align 8, !tbaa !67
  call void @llvm.lifetime.start.p0(i64 8, ptr %7) #10
  %26 = load ptr, ptr %3, align 8, !tbaa !5
  %27 = getelementptr inbounds nuw %struct.client, ptr %26, i32 0, i32 1
  %28 = load i64, ptr %27, align 8, !tbaa !10
  %29 = and i64 %28, 68719476736
  store i64 %29, ptr %7, align 8, !tbaa !67
  %30 = load i64, ptr %5, align 8, !tbaa !67
  %31 = icmp ne i64 %30, 0
  br i1 %31, label %32, label %35

32:                                               ; preds = %2
  %33 = load i64, ptr %7, align 8, !tbaa !67
  %34 = icmp ne i64 %33, 0
  br i1 %34, label %35, label %41

35:                                               ; preds = %32, %2
  %36 = load i64, ptr %6, align 8, !tbaa !67
  %37 = icmp ne i64 %36, 0
  br i1 %37, label %38, label %42

38:                                               ; preds = %35
  %39 = load i64, ptr %7, align 8, !tbaa !67
  %40 = icmp ne i64 %39, 0
  br i1 %40, label %41, label %42

41:                                               ; preds = %38, %32
  store i32 1, ptr %8, align 4
  br label %133

42:                                               ; preds = %38, %35
  call void @llvm.lifetime.start.p0(i64 64, ptr %9) #10
  call void @llvm.memset.p0.i64(ptr align 8 %9, i8 0, i64 64, i1 false)
  %43 = getelementptr inbounds %struct.getKeysResult, ptr %9, i32 0, i32 1
  store i32 6, ptr %43, align 4
  call void @llvm.lifetime.start.p0(i64 4, ptr %10) #10
  %44 = load ptr, ptr %4, align 8, !tbaa !5
  %45 = getelementptr inbounds nuw %struct.client, ptr %44, i32 0, i32 21
  %46 = load ptr, ptr %45, align 8, !tbaa !80
  %47 = load ptr, ptr %4, align 8, !tbaa !5
  %48 = getelementptr inbounds nuw %struct.client, ptr %47, i32 0, i32 16
  %49 = load ptr, ptr %48, align 8, !tbaa !81
  %50 = load ptr, ptr %4, align 8, !tbaa !5
  %51 = getelementptr inbounds nuw %struct.client, ptr %50, i32 0, i32 15
  %52 = load i32, ptr %51, align 8, !tbaa !82
  %53 = call i32 @getKeysFromCommand(ptr noundef %46, ptr noundef %49, i32 noundef %52, ptr noundef %9)
  store i32 %53, ptr %10, align 4, !tbaa !37
  %54 = load i32, ptr %10, align 4, !tbaa !37
  %55 = icmp ne i32 %54, 0
  br i1 %55, label %57, label %56

56:                                               ; preds = %42
  call void @getKeysFreeResult(ptr noundef %9)
  store i32 1, ptr %8, align 4
  br label %132

57:                                               ; preds = %42
  %58 = load ptr, ptr %4, align 8, !tbaa !5
  %59 = getelementptr inbounds nuw %struct.client, ptr %58, i32 0, i32 21
  %60 = load ptr, ptr %59, align 8, !tbaa !80
  %61 = getelementptr inbounds nuw %struct.redisCommand, ptr %60, i32 0, i32 14
  %62 = load i64, ptr %61, align 8, !tbaa !83
  %63 = and i64 %62, 32
  %64 = icmp ne i64 %63, 0
  br i1 %64, label %65, label %66

65:                                               ; preds = %57
  store i32 1, ptr %8, align 4
  br label %132

66:                                               ; preds = %57
  call void @llvm.lifetime.start.p0(i64 8, ptr %11) #10
  %67 = getelementptr inbounds nuw %struct.getKeysResult, ptr %9, i32 0, i32 3
  %68 = load ptr, ptr %67, align 8, !tbaa !89
  store ptr %68, ptr %11, align 8, !tbaa !38
  call void @llvm.lifetime.start.p0(i64 4, ptr %12) #10
  store i32 0, ptr %12, align 4, !tbaa !37
  br label %69

69:                                               ; preds = %128, %66
  %70 = load i32, ptr %12, align 4, !tbaa !37
  %71 = load i32, ptr %10, align 4, !tbaa !37
  %72 = icmp slt i32 %70, %71
  br i1 %72, label %74, label %73

73:                                               ; preds = %69
  store i32 2, ptr %8, align 4
  call void @llvm.lifetime.end.p0(i64 4, ptr %12) #10
  br label %131

74:                                               ; preds = %69
  call void @llvm.lifetime.start.p0(i64 4, ptr %13) #10
  %75 = load ptr, ptr %11, align 8, !tbaa !38
  %76 = load i32, ptr %12, align 4, !tbaa !37
  %77 = sext i32 %76 to i64
  %78 = getelementptr inbounds %struct.keyReference, ptr %75, i64 %77
  %79 = getelementptr inbounds nuw %struct.keyReference, ptr %78, i32 0, i32 0
  %80 = load i32, ptr %79, align 4, !tbaa !91
  store i32 %80, ptr %13, align 4, !tbaa !37
  call void @llvm.lifetime.start.p0(i64 8, ptr %14) #10
  %81 = load ptr, ptr %4, align 8, !tbaa !5
  %82 = getelementptr inbounds nuw %struct.client, ptr %81, i32 0, i32 16
  %83 = load ptr, ptr %82, align 8, !tbaa !81
  %84 = load i32, ptr %13, align 4, !tbaa !37
  %85 = sext i32 %84 to i64
  %86 = getelementptr inbounds ptr, ptr %83, i64 %85
  %87 = load ptr, ptr %86, align 8, !tbaa !68
  %88 = getelementptr inbounds nuw %struct.redisObject, ptr %87, i32 0, i32 2
  %89 = load ptr, ptr %88, align 8, !tbaa !69
  store ptr %89, ptr %14, align 8, !tbaa !71
  call void @llvm.lifetime.start.p0(i64 8, ptr %15) #10
  call void @llvm.lifetime.start.p0(i64 8, ptr %16) #10
  %90 = load ptr, ptr @TrackingTable, align 8, !tbaa !31
  %91 = load ptr, ptr %14, align 8, !tbaa !71
  %92 = load ptr, ptr %14, align 8, !tbaa !71
  %93 = call i64 @sdslen(ptr noundef %92)
  %94 = call i32 @raxFind(ptr noundef %90, ptr noundef %91, i64 noundef %93, ptr noundef %15)
  %95 = icmp ne i32 %94, 0
  br i1 %95, label %116, label %96

96:                                               ; preds = %74
  %97 = call ptr @raxNew()
  store ptr %97, ptr %16, align 8, !tbaa !31
  call void @llvm.lifetime.start.p0(i64 4, ptr %17) #10
  %98 = load ptr, ptr @TrackingTable, align 8, !tbaa !31
  %99 = load ptr, ptr %14, align 8, !tbaa !71
  %100 = load ptr, ptr %14, align 8, !tbaa !71
  %101 = call i64 @sdslen(ptr noundef %100)
  %102 = load ptr, ptr %16, align 8, !tbaa !31
  %103 = call i32 @raxTryInsert(ptr noundef %98, ptr noundef %99, i64 noundef %101, ptr noundef %102, ptr noundef null)
  store i32 %103, ptr %17, align 4, !tbaa !37
  %104 = load i32, ptr %17, align 4, !tbaa !37
  %105 = icmp eq i32 %104, 1
  %106 = xor i1 %105, true
  %107 = xor i1 %106, true
  %108 = zext i1 %107 to i32
  %109 = sext i32 %108 to i64
  %110 = call i64 @llvm.expect.i64(i64 %109, i64 1)
  %111 = icmp ne i64 %110, 0
  br i1 %111, label %112, label %113

112:                                              ; preds = %96
  br label %115

113:                                              ; preds = %96
  call void @_serverAssert(ptr noundef @.str.7, ptr noundef @.str.2, i32 noundef 233)
  call void @abort() #11
  unreachable

114:                                              ; No predecessors!
  br label %115

115:                                              ; preds = %114, %112
  call void @llvm.lifetime.end.p0(i64 4, ptr %17) #10
  br label %118

116:                                              ; preds = %74
  %117 = load ptr, ptr %15, align 8, !tbaa !38
  store ptr %117, ptr %16, align 8, !tbaa !31
  br label %118

118:                                              ; preds = %116, %115
  %119 = load ptr, ptr %16, align 8, !tbaa !31
  %120 = load ptr, ptr %3, align 8, !tbaa !5
  %121 = getelementptr inbounds nuw %struct.client, ptr %120, i32 0, i32 0
  %122 = call i32 @raxTryInsert(ptr noundef %119, ptr noundef %121, i64 noundef 8, ptr noundef null, ptr noundef null)
  %123 = icmp ne i32 %122, 0
  br i1 %123, label %124, label %127

124:                                              ; preds = %118
  %125 = load i64, ptr @TrackingTableTotalItems, align 8, !tbaa !67
  %126 = add i64 %125, 1
  store i64 %126, ptr @TrackingTableTotalItems, align 8, !tbaa !67
  br label %127

127:                                              ; preds = %124, %118
  call void @llvm.lifetime.end.p0(i64 8, ptr %16) #10
  call void @llvm.lifetime.end.p0(i64 8, ptr %15) #10
  call void @llvm.lifetime.end.p0(i64 8, ptr %14) #10
  call void @llvm.lifetime.end.p0(i64 4, ptr %13) #10
  br label %128

128:                                              ; preds = %127
  %129 = load i32, ptr %12, align 4, !tbaa !37
  %130 = add nsw i32 %129, 1
  store i32 %130, ptr %12, align 4, !tbaa !37
  br label %69, !llvm.loop !93

131:                                              ; preds = %73
  call void @getKeysFreeResult(ptr noundef %9)
  call void @llvm.lifetime.end.p0(i64 8, ptr %11) #10
  store i32 0, ptr %8, align 4
  br label %132

132:                                              ; preds = %131, %65, %56
  call void @llvm.lifetime.end.p0(i64 4, ptr %10) #10
  call void @llvm.lifetime.end.p0(i64 64, ptr %9) #10
  br label %133

133:                                              ; preds = %132, %41
  call void @llvm.lifetime.end.p0(i64 8, ptr %7) #10
  call void @llvm.lifetime.end.p0(i64 8, ptr %6) #10
  call void @llvm.lifetime.end.p0(i64 8, ptr %5) #10
  %134 = load i32, ptr %8, align 4
  switch i32 %134, label %136 [
    i32 0, label %135
    i32 1, label %135
  ]

135:                                              ; preds = %133, %133
  ret void

136:                                              ; preds = %133
  unreachable
}