; Function Attrs: nounwind uwtable
define dso_local void @trackingRememberKeys(ptr noundef %0, ptr noundef readonly captures(none) %1) local_unnamed_addr #0 {
  %3 = alloca %struct.getKeysResult, align 8
  %4 = alloca ptr, align 8
  %5 = getelementptr inbounds nuw i8, ptr %0, i64 8
  %6 = load i64, ptr %5, align 8, !tbaa !10
  %7 = and i64 %6, 85899345920
  %or.cond.not = icmp eq i64 %7, 17179869184
  %8 = and i64 %6, 103079215104
  %or.cond3 = icmp eq i64 %8, 103079215104
  %or.cond = or i1 %or.cond.not, %or.cond3
  br i1 %or.cond, label %95, label %9

9:                                                ; preds = %2
  call void @llvm.lifetime.start.p0(i64 64, ptr nonnull %3) #9
  call void @llvm.memset.p0.i64(ptr noundef nonnull align 8 dereferenceable(64) %3, i8 0, i64 64, i1 false)
  %10 = getelementptr inbounds nuw i8, ptr %3, i64 4
  store i32 6, ptr %10, align 4
  %11 = getelementptr inbounds nuw i8, ptr %1, i64 128
  %12 = load ptr, ptr %11, align 8, !tbaa !76
  %13 = getelementptr inbounds nuw i8, ptr %1, i64 96
  %14 = load ptr, ptr %13, align 8, !tbaa !77
  %15 = getelementptr inbounds nuw i8, ptr %1, i64 88
  %16 = load i32, ptr %15, align 8, !tbaa !78
  %17 = call i32 @getKeysFromCommand(ptr noundef %12, ptr noundef %14, i32 noundef %16, ptr noundef nonnull %3) #9
  %.not = icmp eq i32 %17, 0
  br i1 %.not, label %.sink.split, label %18

18:                                               ; preds = %9
  %19 = load ptr, ptr %11, align 8, !tbaa !76
  %20 = getelementptr inbounds nuw i8, ptr %19, i64 112
  %21 = load i64, ptr %20, align 8, !tbaa !79
  %22 = and i64 %21, 32
  %.not31 = icmp eq i64 %22, 0
  br i1 %.not31, label %23, label %94

23:                                               ; preds = %18
  %24 = getelementptr inbounds nuw i8, ptr %3, i64 56
  %25 = load ptr, ptr %24, align 8, !tbaa !85
  %26 = icmp sgt i32 %17, 0
  br i1 %26, label %.lr.ph.preheader, label %.sink.split

.lr.ph.preheader:                                 ; preds = %23
  %wide.trip.count = zext nneg i32 %17 to i64
  br label %.lr.ph

.lr.ph:                                           ; preds = %.lr.ph.preheader, %93
  %indvars.iv = phi i64 [ 0, %.lr.ph.preheader ], [ %indvars.iv.next, %93 ]
  %27 = getelementptr inbounds nuw %struct.keyReference, ptr %25, i64 %indvars.iv
  %28 = load i32, ptr %27, align 4, !tbaa !87
  %29 = load ptr, ptr %13, align 8, !tbaa !77
  %30 = sext i32 %28 to i64
  %31 = getelementptr inbounds ptr, ptr %29, i64 %30
  %32 = load ptr, ptr %31, align 8, !tbaa !64
  %33 = getelementptr inbounds nuw i8, ptr %32, i64 8
  %34 = load ptr, ptr %33, align 8, !tbaa !65
  call void @llvm.lifetime.start.p0(i64 8, ptr nonnull %4) #9
  %35 = load ptr, ptr @TrackingTable, align 8, !tbaa !31
  %36 = getelementptr inbounds i8, ptr %34, i64 -1
  %37 = load i8, ptr %36, align 1, !tbaa !67
  %38 = zext i8 %37 to i32
  %39 = and i32 %38, 7
  switch i32 %39, label %sdslen.exit [
    i32 0, label %40
    i32 1, label %43
    i32 2, label %47
    i32 3, label %51
    i32 4, label %55
  ]

40:                                               ; preds = %.lr.ph
  %41 = lshr i32 %38, 3
  %42 = zext nneg i32 %41 to i64
  br label %sdslen.exit

43:                                               ; preds = %.lr.ph
  %44 = getelementptr inbounds i8, ptr %34, i64 -3
  %45 = load i8, ptr %44, align 1, !tbaa !67
  %46 = zext i8 %45 to i64
  br label %sdslen.exit

47:                                               ; preds = %.lr.ph
  %48 = getelementptr inbounds i8, ptr %34, i64 -5
  %49 = load i16, ptr %48, align 1, !tbaa !68
  %50 = zext i16 %49 to i64
  br label %sdslen.exit

51:                                               ; preds = %.lr.ph
  %52 = getelementptr inbounds i8, ptr %34, i64 -9
  %53 = load i32, ptr %52, align 1, !tbaa !70
  %54 = zext i32 %53 to i64
  br label %sdslen.exit

55:                                               ; preds = %.lr.ph
  %56 = getelementptr inbounds i8, ptr %34, i64 -17
  %57 = load i64, ptr %56, align 1, !tbaa !71
  br label %sdslen.exit

sdslen.exit:                                      ; preds = %.lr.ph, %40, %43, %47, %51, %55
  %.0.i = phi i64 [ %57, %55 ], [ %54, %51 ], [ %50, %47 ], [ %46, %43 ], [ %42, %40 ], [ 0, %.lr.ph ]
  %58 = call i32 @raxFind(ptr noundef %35, ptr noundef nonnull %34, i64 noundef %.0.i, ptr noundef nonnull %4) #9
  %.not32 = icmp eq i32 %58, 0
  br i1 %.not32, label %59, label %86

59:                                               ; preds = %sdslen.exit
  %60 = call ptr @raxNew() #9
  %61 = load ptr, ptr @TrackingTable, align 8, !tbaa !31
  %62 = load i8, ptr %36, align 1, !tbaa !67
  %63 = zext i8 %62 to i32
  %64 = and i32 %63, 7
  switch i32 %64, label %sdslen.exit35 [
    i32 0, label %65
    i32 1, label %68
    i32 2, label %72
    i32 3, label %76
    i32 4, label %80
  ]

65:                                               ; preds = %59
  %66 = lshr i32 %63, 3
  %67 = zext nneg i32 %66 to i64
  br label %sdslen.exit35

68:                                               ; preds = %59
  %69 = getelementptr inbounds i8, ptr %34, i64 -3
  %70 = load i8, ptr %69, align 1, !tbaa !67
  %71 = zext i8 %70 to i64
  br label %sdslen.exit35

72:                                               ; preds = %59
  %73 = getelementptr inbounds i8, ptr %34, i64 -5
  %74 = load i16, ptr %73, align 1, !tbaa !68
  %75 = zext i16 %74 to i64
  br label %sdslen.exit35

76:                                               ; preds = %59
  %77 = getelementptr inbounds i8, ptr %34, i64 -9
  %78 = load i32, ptr %77, align 1, !tbaa !70
  %79 = zext i32 %78 to i64
  br label %sdslen.exit35

80:                                               ; preds = %59
  %81 = getelementptr inbounds i8, ptr %34, i64 -17
  %82 = load i64, ptr %81, align 1, !tbaa !71
  br label %sdslen.exit35

sdslen.exit35:                                    ; preds = %59, %65, %68, %72, %76, %80
  %.0.i34 = phi i64 [ %82, %80 ], [ %79, %76 ], [ %75, %72 ], [ %71, %68 ], [ %67, %65 ], [ 0, %59 ]
  %83 = call i32 @raxTryInsert(ptr noundef %61, ptr noundef nonnull %34, i64 noundef %.0.i34, ptr noundef %60, ptr noundef null) #9
  %84 = icmp eq i32 %83, 1
  br i1 %84, label %88, label %85, !prof !89

85:                                               ; preds = %sdslen.exit35
  call void @_serverAssert(ptr noundef nonnull @.str.7, ptr noundef nonnull @.str.2, i32 noundef 233) #9
  call void @abort() #10
  unreachable

86:                                               ; preds = %sdslen.exit
  %87 = load ptr, ptr %4, align 8, !tbaa !38
  br label %88

88:                                               ; preds = %sdslen.exit35, %86
  %.0 = phi ptr [ %87, %86 ], [ %60, %sdslen.exit35 ]
  %89 = call i32 @raxTryInsert(ptr noundef %.0, ptr noundef %0, i64 noundef 8, ptr noundef null, ptr noundef null) #9
  %.not33 = icmp eq i32 %89, 0
  br i1 %.not33, label %93, label %90

90:                                               ; preds = %88
  %91 = load i64, ptr @TrackingTableTotalItems, align 8, !tbaa !71
  %92 = add i64 %91, 1
  store i64 %92, ptr @TrackingTableTotalItems, align 8, !tbaa !71
  br label %93

93:                                               ; preds = %90, %88
  call void @llvm.lifetime.end.p0(i64 8, ptr nonnull %4) #9
  %indvars.iv.next = add nuw nsw i64 %indvars.iv, 1
  %exitcond.not = icmp eq i64 %indvars.iv.next, %wide.trip.count
  br i1 %exitcond.not, label %.sink.split, label %.lr.ph, !llvm.loop !90

.sink.split:                                      ; preds = %93, %23, %9
  call void @getKeysFreeResult(ptr noundef nonnull %3) #9
  br label %94

94:                                               ; preds = %.sink.split, %18
  call void @llvm.lifetime.end.p0(i64 64, ptr nonnull %3) #9
  br label %95

95:                                               ; preds = %2, %94
  ret void
}